; ModuleID = '12/768.c'
source_filename = "12/768.c"
target datalayout = "e-m:e-p270:32:32-p271:32:32-p272:64:64-i64:64-f80:128-n8:16:32:64-S128"
target triple = "x86_64-pc-linux-gnu"

@.str = private unnamed_addr constant [3 x i8] c"%d\00", align 1
@.str.1 = private unnamed_addr constant [4 x i8] c"%d\0A\00", align 1

; Function Attrs: noinline nounwind uwtable
define dso_local i32 @main() #0 {
  %1 = alloca i32, align 4
  %2 = alloca [100 x [16 x i32]], align 16
  %3 = alloca i32, align 4
  %4 = alloca i32, align 4
  %5 = alloca i32, align 4
  %6 = alloca i32, align 4
  %7 = alloca i32, align 4
  store i32 0, i32* %1, align 4
  %8 = bitcast [100 x [16 x i32]]* %2 to i8*
  call void @llvm.memset.p0i8.i64(i8* align 16 %8, i8 0, i64 6400, i1 false)
  store i32 0, i32* %3, align 4
  store i32 0, i32* %4, align 4
  store i32 0, i32* %5, align 4
  store i32 0, i32* %6, align 4
  store i32 0, i32* %7, align 4
  br label %9

9:                                                ; preds = %46, %0
  store i32 0, i32* %4, align 4
  br label %10

10:                                               ; preds = %40, %9
  %11 = load i32, i32* %4, align 4
  %12 = icmp slt i32 %11, 16
  br i1 %12, label %13, label %43

13:                                               ; preds = %10
  %14 = load i32, i32* %5, align 4
  %15 = sext i32 %14 to i64
  %16 = getelementptr inbounds [100 x [16 x i32]], [100 x [16 x i32]]* %2, i64 0, i64 %15
  %17 = load i32, i32* %4, align 4
  %18 = sext i32 %17 to i64
  %19 = getelementptr inbounds [16 x i32], [16 x i32]* %16, i64 0, i64 %18
  %20 = call i32 (i8*, ...) @__isoc99_scanf(i8* getelementptr inbounds ([3 x i8], [3 x i8]* @.str, i64 0, i64 0), i32* %19)
  %21 = load i32, i32* %5, align 4
  %22 = sext i32 %21 to i64
  %23 = getelementptr inbounds [100 x [16 x i32]], [100 x [16 x i32]]* %2, i64 0, i64 %22
  %24 = load i32, i32* %4, align 4
  %25 = sext i32 %24 to i64
  %26 = getelementptr inbounds [16 x i32], [16 x i32]* %23, i64 0, i64 %25
  %27 = load i32, i32* %26, align 4
  %28 = icmp eq i32 %27, 0
  br i1 %28, label %38, label %29

29:                                               ; preds = %13
  %30 = load i32, i32* %5, align 4
  %31 = sext i32 %30 to i64
  %32 = getelementptr inbounds [100 x [16 x i32]], [100 x [16 x i32]]* %2, i64 0, i64 %31
  %33 = load i32, i32* %4, align 4
  %34 = sext i32 %33 to i64
  %35 = getelementptr inbounds [16 x i32], [16 x i32]* %32, i64 0, i64 %34
  %36 = load i32, i32* %35, align 4
  %37 = icmp eq i32 %36, -1
  br i1 %37, label %38, label %39

38:                                               ; preds = %29, %13
  br label %43

39:                                               ; preds = %29
  br label %40

40:                                               ; preds = %39
  %41 = load i32, i32* %4, align 4
  %42 = add nsw i32 %41, 1
  store i32 %42, i32* %4, align 4
  br label %10

43:                                               ; preds = %38, %10
  %44 = load i32, i32* %5, align 4
  %45 = add nsw i32 %44, 1
  store i32 %45, i32* %5, align 4
  br label %46

46:                                               ; preds = %43
  %47 = load i32, i32* %5, align 4
  %48 = sub nsw i32 %47, 1
  %49 = sext i32 %48 to i64
  %50 = getelementptr inbounds [100 x [16 x i32]], [100 x [16 x i32]]* %2, i64 0, i64 %49
  %51 = getelementptr inbounds [16 x i32], [16 x i32]* %50, i64 0, i64 0
  %52 = load i32, i32* %51, align 16
  %53 = icmp ne i32 %52, -1
  br i1 %53, label %9, label %54

54:                                               ; preds = %46
  %55 = load i32, i32* %5, align 4
  %56 = add nsw i32 %55, -1
  store i32 %56, i32* %5, align 4
  store i32 0, i32* %3, align 4
  br label %57

57:                                               ; preds = %112, %54
  %58 = load i32, i32* %3, align 4
  %59 = load i32, i32* %5, align 4
  %60 = icmp slt i32 %58, %59
  br i1 %60, label %61, label %115

61:                                               ; preds = %57
  store i32 0, i32* %4, align 4
  br label %62

62:                                               ; preds = %106, %61
  %63 = load i32, i32* %3, align 4
  %64 = sext i32 %63 to i64
  %65 = getelementptr inbounds [100 x [16 x i32]], [100 x [16 x i32]]* %2, i64 0, i64 %64
  %66 = load i32, i32* %4, align 4
  %67 = sext i32 %66 to i64
  %68 = getelementptr inbounds [16 x i32], [16 x i32]* %65, i64 0, i64 %67
  %69 = load i32, i32* %68, align 4
  %70 = icmp ne i32 %69, 0
  br i1 %70, label %71, label %109

71:                                               ; preds = %62
  store i32 0, i32* %6, align 4
  br label %72

72:                                               ; preds = %102, %71
  %73 = load i32, i32* %3, align 4
  %74 = sext i32 %73 to i64
  %75 = getelementptr inbounds [100 x [16 x i32]], [100 x [16 x i32]]* %2, i64 0, i64 %74
  %76 = load i32, i32* %6, align 4
  %77 = sext i32 %76 to i64
  %78 = getelementptr inbounds [16 x i32], [16 x i32]* %75, i64 0, i64 %77
  %79 = load i32, i32* %78, align 4
  %80 = icmp ne i32 %79, 0
  br i1 %80, label %81, label %105

81:                                               ; preds = %72
  %82 = load i32, i32* %3, align 4
  %83 = sext i32 %82 to i64
  %84 = getelementptr inbounds [100 x [16 x i32]], [100 x [16 x i32]]* %2, i64 0, i64 %83
  %85 = load i32, i32* %6, align 4
  %86 = sext i32 %85 to i64
  %87 = getelementptr inbounds [16 x i32], [16 x i32]* %84, i64 0, i64 %86
  %88 = load i32, i32* %87, align 4
  %89 = mul nsw i32 2, %88
  %90 = load i32, i32* %3, align 4
  %91 = sext i32 %90 to i64
  %92 = getelementptr inbounds [100 x [16 x i32]], [100 x [16 x i32]]* %2, i64 0, i64 %91
  %93 = load i32, i32* %4, align 4
  %94 = sext i32 %93 to i64
  %95 = getelementptr inbounds [16 x i32], [16 x i32]* %92, i64 0, i64 %94
  %96 = load i32, i32* %95, align 4
  %97 = icmp eq i32 %89, %96
  br i1 %97, label %98, label %101

98:                                               ; preds = %81
  %99 = load i32, i32* %7, align 4
  %100 = add nsw i32 %99, 1
  store i32 %100, i32* %7, align 4
  br label %101

101:                                              ; preds = %98, %81
  br label %102

102:                                              ; preds = %101
  %103 = load i32, i32* %6, align 4
  %104 = add nsw i32 %103, 1
  store i32 %104, i32* %6, align 4
  br label %72

105:                                              ; preds = %72
  br label %106

106:                                              ; preds = %105
  %107 = load i32, i32* %4, align 4
  %108 = add nsw i32 %107, 1
  store i32 %108, i32* %4, align 4
  br label %62

109:                                              ; preds = %62
  %110 = load i32, i32* %7, align 4
  %111 = call i32 (i8*, ...) @printf(i8* getelementptr inbounds ([4 x i8], [4 x i8]* @.str.1, i64 0, i64 0), i32 %110)
  store i32 0, i32* %7, align 4
  br label %112

112:                                              ; preds = %109
  %113 = load i32, i32* %3, align 4
  %114 = add nsw i32 %113, 1
  store i32 %114, i32* %3, align 4
  br label %57

115:                                              ; preds = %57
  ret i32 0
}

; Function Attrs: argmemonly nounwind willreturn
declare void @llvm.memset.p0i8.i64(i8* nocapture writeonly, i8, i64, i1 immarg) #1

declare dso_local i32 @__isoc99_scanf(i8*, ...) #2

declare dso_local i32 @printf(i8*, ...) #2


!llvm.module.flags = !{!0}
!llvm.ident = !{!1}

!0 = !{i32 1, !"wchar_size", i32 4}
!1 = !{!"clang version 10.0.0-4ubuntu1 "}
